; Function Attrs: mustprogress uwtable
define hidden void @_ZN3smt11theory_char12enforce_bitsEv(ptr noundef nonnull align 8 dereferenceable(384) %this) local_unnamed_addr #3 align 2 {
entry:
  %m_var2enode.i = getelementptr inbounds i8, ptr %this, i64 32
  %0 = load ptr, ptr %m_var2enode.i, align 8
  %cmp.i.i = icmp eq ptr %0, null
  br i1 %cmp.i.i, label %for.end, label %_ZNK3smt6theory12get_num_varsEv.exit

_ZNK3smt6theory12get_num_varsEv.exit:             ; preds = %entry
  %arrayidx.i.i = getelementptr inbounds i8, ptr %0, i64 -4
  %1 = load i32, ptr %arrayidx.i.i, align 4
  %cmp.not12 = icmp eq i32 %1, 0
  br i1 %cmp.not12, label %for.end, label %for.body.lr.ph

for.body.lr.ph:                                   ; preds = %_ZNK3smt6theory12get_num_varsEv.exit
  %seq.i.i = getelementptr inbounds i8, ptr %this, i64 64
  %m_bits.i = getelementptr inbounds i8, ptr %this, i64 192
  %2 = zext i32 %1 to i64
  br label %for.body

for.body:                                         ; preds = %for.body.lr.ph, %if.end
  %indvars.iv = phi i64 [ %2, %for.body.lr.ph ], [ %indvars.iv.next, %if.end ]
  %indvars.iv.next = add nsw i64 %indvars.iv, -1
  %indvars = trunc i64 %indvars.iv.next to i32
  %3 = load ptr, ptr %m_var2enode.i, align 8
  %idxprom.i.i.i = and i64 %indvars.iv.next, 4294967295
  %arrayidx.i.i.i = getelementptr inbounds ptr, ptr %3, i64 %idxprom.i.i.i
  %4 = load ptr, ptr %arrayidx.i.i.i, align 8
  %5 = load ptr, ptr %4, align 8
  %call.i = tail call noundef ptr @_ZNK4expr8get_sortEv(ptr noundef nonnull align 4 dereferenceable(16) %5)
  %6 = load ptr, ptr %seq.i.i, align 8
  %m_char.i.i.i = getelementptr inbounds i8, ptr %6, i64 64
  %7 = load ptr, ptr %m_char.i.i.i, align 8
  %cmp.i.i.i = icmp eq ptr %7, %call.i
  br i1 %cmp.i.i.i, label %land.lhs.true, label %if.end

land.lhs.true:                                    ; preds = %for.body
  %8 = load ptr, ptr %m_var2enode.i, align 8
  %arrayidx.i.i6 = getelementptr inbounds ptr, ptr %8, i64 %idxprom.i.i.i
  %9 = load ptr, ptr %arrayidx.i.i6, align 8
  %m_root.i = getelementptr inbounds i8, ptr %9, i64 8
  %10 = load ptr, ptr %m_root.i, align 8
  %cmp.i = icmp eq ptr %10, %9
  br i1 %cmp.i, label %land.lhs.true6, label %if.end

land.lhs.true6:                                   ; preds = %land.lhs.true
  %11 = load ptr, ptr %m_bits.i, align 8
  %cmp.i.i7 = icmp eq ptr %11, null
  br i1 %cmp.i.i7, label %if.then, label %_ZNK6vectorI7svectorIN3sat7literalEjELb1EjE4sizeEv.exit.i

_ZNK6vectorI7svectorIN3sat7literalEjELb1EjE4sizeEv.exit.i: ; preds = %land.lhs.true6
  %arrayidx.i.i8 = getelementptr inbounds i8, ptr %11, i64 -4
  %12 = load i32, ptr %arrayidx.i.i8, align 4
  %cmp.i9 = icmp ugt i32 %12, %indvars
  br i1 %cmp.i9, label %land.rhs.i, label %if.then

land.rhs.i:                                       ; preds = %_ZNK6vectorI7svectorIN3sat7literalEjELb1EjE4sizeEv.exit.i
  %arrayidx.i2.i = getelementptr inbounds %class.svector.228, ptr %11, i64 %idxprom.i.i.i
  %13 = load ptr, ptr %arrayidx.i2.i, align 8
  %cmp.i3.i = icmp eq ptr %13, null
  br i1 %cmp.i3.i, label %if.then, label %_ZNK3smt11theory_char8has_bitsEi.exit

_ZNK3smt11theory_char8has_bitsEi.exit:            ; preds = %land.rhs.i
  %arrayidx.i4.i = getelementptr inbounds i8, ptr %13, i64 -4
  %14 = load i32, ptr %arrayidx.i4.i, align 4
  %cmp3.i.i.not = icmp eq i32 %14, 0
  br i1 %cmp3.i.i.not, label %if.then, label %if.end

if.then:                                          ; preds = %land.rhs.i, %land.lhs.true6, %_ZNK6vectorI7svectorIN3sat7literalEjELb1EjE4sizeEv.exit.i, %_ZNK3smt11theory_char8has_bitsEi.exit
  tail call void @_ZN3smt11theory_char9init_bitsEi(ptr noundef nonnull align 8 dereferenceable(384) %this, i32 noundef %indvars)
  br label %if.end

if.end:                                           ; preds = %if.then, %_ZNK3smt11theory_char8has_bitsEi.exit, %land.lhs.true, %for.body
  %cmp.not = icmp eq i32 %indvars, 0
  br i1 %cmp.not, label %for.end, label %for.body, !llvm.loop !19

for.end:                                          ; preds = %if.end, %entry, %_ZNK3smt6theory12get_num_varsEv.exit
  ret void
}